(dp0
S'METTS MARK'
p1
(dp2
S'salary'
p3
I365788
sS'to_messages'
p4
F807.0
sS'from_poi_ratio'
p5
F0.04708798017348203
sS'total_payments'
p6
I1061827
sS'long_term_incentive'
p7
S'NaN'
p8
sS'bonus'
p9
I600000
sS'total_stock_value'
p10
I585062
sS'expenses'
p11
I94299
sS'exercised_stock_options'
p12
g8
sS'from_messages'
p13
F29.0
sS'other'
p14
I1740
sS'from_this_person_to_poi'
p15
F1.0
sS'to_poi_ratio'
p16
F0.034482758620689655
sS'poi'
p17
I00
sS'deferred_income'
p18
g8
sS'shared_receipt_with_poi'
p19
F702.0
sS'restricted_stock'
p20
I585062
sS'from_poi_to_this_person'
p21
F38.0
ssS'BAXTER JOHN C'
p22
(dp23
g3
I267102
sg4
F944.0
sg5
F0.028072033898305086
sg6
I5634343
sg7
I1586055
sg9
I1200000
sg10
I10623258
sg11
I11200
sg12
I6680544
sg13
F41.0
sg14
I2660303
sg15
F6.0
sg16
F0.14634146341463414
sg17
I00
sg18
I-1386055
sg19
F594.0
sg20
I3942714
sg21
F26.5
ssS'ELLIOTT STEVEN'
p24
(dp25
g3
I170941
sg4
F944.0
sg5
F0.028072033898305086
sg6
I211725
sg7
g8
sg9
I350000
sg10
I6678735
sg11
I78552
sg12
I4890344
sg13
F41.0
sg14
I12961
sg15
F6.0
sg16
F0.14634146341463414
sg17
I00
sg18
I-400729
sg19
F594.0
sg20
I1788391
sg21
F26.5
ssS'CORDES WILLIAM R'
p26
(dp27
g3
g8
sg4
F764.0
sg5
F0.013089005235602094
sg6
g8
sg7
g8
sg9
g8
sg10
I1038185
sg11
g8
sg12
I651850
sg13
F12.0
sg14
g8
sg15
F0.0
sg16
F0.0
sg17
I00
sg18
g8
sg19
F58.0
sg20
I386335
sg21
F10.0
ssS'HANNON KEVIN P'
p28
(dp29
g3
I243293
sg4
F1045.0
sg5
F0.03062200956937799
sg6
I288682
sg7
I1617011
sg9
I1500000
sg10
I6391065
sg11
I34039
sg12
I5538001
sg13
F32.0
sg14
I11350
sg15
F21.0
sg16
F0.65625
sg17
I01
sg18
I-3117011
sg19
F1035.0
sg20
I853064
sg21
F32.0
ssS'MORDAUNT KRISTINA M'
p30
(dp31
g3
I267093
sg4
F944.0
sg5
F0.028072033898305086
sg6
I628522
sg7
g8
sg9
I325000
sg10
I208510
sg11
I35018
sg12
g8
sg13
F41.0
sg14
I1411
sg15
F6.0
sg16
F0.14634146341463414
sg17
I00
sg18
g8
sg19
F594.0
sg20
I208510
sg21
F26.5
ssS'MEYER ROCKFORD G'
p32
(dp33
g3
g8
sg4
F232.0
sg5
F0.0
sg6
I1848227
sg7
g8
sg9
g8
sg10
I955873
sg11
g8
sg12
I493489
sg13
F28.0
sg14
g8
sg15
F0.0
sg16
F0.0
sg17
I00
sg18
g8
sg19
F22.0
sg20
I462384
sg21
F0.0
ssS'MCMAHON JEFFREY'
p34
(dp35
g3
I370448
sg4
F2355.0
sg5
F0.024628450106157114
sg6
I4099771
sg7
I694862
sg9
I2600000
sg10
I1662855
sg11
I137108
sg12
I1104054
sg13
F48.0
sg14
I297353
sg15
F26.0
sg16
F0.5416666666666666
sg17
I00
sg18
g8
sg19
F2228.0
sg20
I558801
sg21
F58.0
ssS'HORTON STANLEY C'
p36
(dp37
g3
g8
sg4
F2350.0
sg5
F0.01872340425531915
sg6
I3131860
sg7
g8
sg9
g8
sg10
I7256648
sg11
g8
sg12
I5210569
sg13
F1073.0
sg14
g8
sg15
F15.0
sg16
F0.013979496738117428
sg17
I00
sg18
g8
sg19
F1074.0
sg20
I2046079
sg21
F44.0
ssS'PIPER GREGORY F'
p38
(dp39
g3
I197091
sg4
F1238.0
sg5
F0.049273021001615507
sg6
I1737629
sg7
g8
sg9
I400000
sg10
I880290
sg11
I43057
sg12
I880290
sg13
F222.0
sg14
I778
sg15
F48.0
sg16
F0.21621621621621623
sg17
I00
sg18
I-33333
sg19
F742.0
sg20
I409554
sg21
F61.0
ssS'HUMPHREY GENE E'
p40
(dp41
g3
I130724
sg4
F128.0
sg5
F0.078125
sg6
I3100224
sg7
g8
sg9
g8
sg10
I2282768
sg11
I4994
sg12
I2282768
sg13
F17.0
sg14
g8
sg15
F17.0
sg16
F1.0
sg17
I00
sg18
g8
sg19
F119.0
sg20
g8
sg21
F10.0
ssS'UMANOFF ADAM S'
p42
(dp43
g3
I288589
sg4
F111.0
sg5
F0.10810810810810811
sg6
I1130461
sg7
g8
sg9
I788750
sg10
g8
sg11
I53122
sg12
g8
sg13
F18.0
sg14
g8
sg15
F0.0
sg16
F0.0
sg17
I00
sg18
g8
sg19
F41.0
sg20
g8
sg21
F12.0
ssS'BLACHMAN JEREMY M'
p44
(dp45
g3
I248546
sg4
F2475.0
sg5
F0.010101010101010102
sg6
I2014835
sg7
I831809
sg9
I850000
sg10
I954354
sg11
I84208
sg12
I765313
sg13
F14.0
sg14
I272
sg15
F2.0
sg16
F0.14285714285714285
sg17
I00
sg18
g8
sg19
F2326.0
sg20
I189041
sg21
F25.0
ssS'SUNDE MARTIN'
p46
(dp47
g3
I257486
sg4
F2647.0
sg5
F0.013978088401964487
sg6
I1545059
sg7
I476451
sg9
I700000
sg10
I698920
sg11
g8
sg12
g8
sg13
F38.0
sg14
I111122
sg15
F13.0
sg16
F0.34210526315789475
sg17
I00
sg18
g8
sg19
F2565.0
sg20
I698920
sg21
F37.0
ssS'GIBBS DANA R'
p48
(dp49
g3
g8
sg4
F169.0
sg5
F0.0
sg6
I966522
sg7
I461912
sg9
g8
sg10
I2218275
sg11
g8
sg12
I2218275
sg13
F12.0
sg14
g8
sg15
F0.0
sg16
F0.0
sg17
I00
sg18
g8
sg19
F23.0
sg20
g8
sg21
F0.0
ssS'LOWRY CHARLES P'
p50
(dp51
g3
g8
sg4
F944.0
sg5
F0.028072033898305086
sg6
g8
sg7
g8
sg9
g8
sg10
I372205
sg11
g8
sg12
I372205
sg13
F41.0
sg14
g8
sg15
F6.0
sg16
F0.14634146341463414
sg17
I00
sg18
g8
sg19
F594.0
sg20
I153686
sg21
F26.5
ssS'COLWELL WESLEY'
p52
(dp53
g3
I288542
sg4
F1758.0
sg5
F0.13651877133105803
sg6
I1490344
sg7
g8
sg9
I1200000
sg10
I698242
sg11
I16514
sg12
g8
sg13
F40.0
sg14
I101740
sg15
F11.0
sg16
F0.275
sg17
I01
sg18
I-144062
sg19
F1132.0
sg20
I698242
sg21
F240.0
ssS'MULLER MARK S'
p54
(dp55
g3
I251654
sg4
F136.0
sg5
F0.08823529411764706
sg6
I3202070
sg7
I1725545
sg9
I1100000
sg10
I1416848
sg11
g8
sg12
I1056320
sg13
F16.0
sg14
I947
sg15
F0.0
sg16
F0.0
sg17
I00
sg18
I-719000
sg19
F114.0
sg20
I360528
sg21
F12.0
ssS'JACKSON CHARLENE R'
p56
(dp57
g3
I288558
sg4
F258.0
sg5
F0.09689922480620156
sg6
I551174
sg7
g8
sg9
I250000
sg10
I725735
sg11
I10181
sg12
I185063
sg13
F56.0
sg14
I2435
sg15
F19.0
sg16
F0.3392857142857143
sg17
I00
sg18
g8
sg19
F117.0
sg20
I540672
sg21
F25.0
ssS'WESTFAHL RICHARD K'
p58
(dp59
g3
I63744
sg4
F944.0
sg5
F0.028072033898305086
sg6
I762135
sg7
I256191
sg9
g8
sg10
I384930
sg11
I51870
sg12
g8
sg13
F41.0
sg14
I401130
sg15
F6.0
sg16
F0.14634146341463414
sg17
I00
sg18
I-10800
sg19
F594.0
sg20
I384930
sg21
F26.5
ssS'WALTERS GARETH W'
p60
(dp61
g3
g8
sg4
F944.0
sg5
F0.028072033898305086
sg6
I87410
sg7
g8
sg9
g8
sg10
I1030329
sg11
I33785
sg12
I1030329
sg13
F41.0
sg14
g8
sg15
F6.0
sg16
F0.14634146341463414
sg17
I00
sg18
g8
sg19
F594.0
sg20
g8
sg21
F26.5
ssS'WALLS JR ROBERT H'
p62
(dp63
g3
I357091
sg4
F671.0
sg5
F0.02533532041728763
sg6
I1798780
sg7
I540751
sg9
I850000
sg10
I5898997
sg11
I50936
sg12
I4346544
sg13
F146.0
sg14
I2
sg15
F0.0
sg16
F0.0
sg17
I00
sg18
g8
sg19
F215.0
sg20
I1552453
sg21
F17.0
ssS'KITCHEN LOUISE'
p64
(dp65
g3
I271442
sg4
F8305.0
sg5
F0.030222757375075255
sg6
I3471141
sg7
g8
sg9
I3100000
sg10
I547143
sg11
I5774
sg12
I81042
sg13
F1728.0
sg14
I93925
sg15
F194.0
sg16
F0.11226851851851852
sg17
I00
sg18
g8
sg19
F3669.0
sg20
I466101
sg21
F251.0
ssS'CHAN RONNIE'
p66
(dp67
g3
g8
sg4
F944.0
sg5
F0.028072033898305086
sg6
g8
sg7
g8
sg9
g8
sg10
g8
sg11
g8
sg12
g8
sg13
F41.0
sg14
g8
sg15
F6.0
sg16
F0.14634146341463414
sg17
I00
sg18
I-98784
sg19
F594.0
sg20
I32460
sg21
F26.5
ssS'BELFER ROBERT'
p68
(dp69
g3
g8
sg4
F944.0
sg5
F0.028072033898305086
sg6
I102500
sg7
g8
sg9
g8
sg10
I-44093
sg11
g8
sg12
I3285
sg13
F41.0
sg14
g8
sg15
F6.0
sg16
F0.14634146341463414
sg17
I00
sg18
g8
sg19
F594.0
sg20
g8
sg21
F26.5
ssS'SHANKMAN JEFFREY A'
p70
(dp71
g3
I304110
sg4
F3221.0
sg5
F0.029183483390251473
sg6
I3038702
sg7
I554422
sg9
I2000000
sg10
I2072035
sg11
I178979
sg12
I1441898
sg13
F2681.0
sg14
I1191
sg15
F83.0
sg16
F0.030958597538232
sg17
I00
sg18
g8
sg19
F1730.0
sg20
I630137
sg21
F94.0
ssS'WODRASKA JOHN'
p72
(dp73
g3
g8
sg4
F944.0
sg5
F0.028072033898305086
sg6
I189583
sg7
g8
sg9
g8
sg10
g8
sg11
g8
sg12
g8
sg13
F41.0
sg14
I189583
sg15
F6.0
sg16
F0.14634146341463414
sg17
I00
sg18
g8
sg19
F594.0
sg20
g8
sg21
F26.5
ssS'BERGSIEKER RICHARD P'
p74
(dp75
g3
I187922
sg4
F383.0
sg5
F0.010443864229765013
sg6
I618850
sg7
I180250
sg9
I250000
sg10
I659249
sg11
I59175
sg12
g8
sg13
F59.0
sg14
I427316
sg15
F0.0
sg16
F0.0
sg17
I00
sg18
I-485813
sg19
F233.0
sg20
I659249
sg21
F4.0
ssS'URQUHART JOHN A'
p76
(dp77
g3
g8
sg4
F944.0
sg5
F0.028072033898305086
sg6
I228656
sg7
g8
sg9
g8
sg10
g8
sg11
I228656
sg12
g8
sg13
F41.0
sg14
g8
sg15
F6.0
sg16
F0.14634146341463414
sg17
I00
sg18
I-36666
sg19
F594.0
sg20
g8
sg21
F26.5
ssS'BIBI PHILIPPE A'
p78
(dp79
g3
I213625
sg4
F1607.0
sg5
F0.01431238332296204
sg6
I2047593
sg7
I369721
sg9
I1000000
sg10
I1843816
sg11
I38559
sg12
I1465734
sg13
F40.0
sg14
I425688
sg15
F8.0
sg16
F0.2
sg17
I00
sg18
g8
sg19
F1336.0
sg20
I378082
sg21
F23.0
ssS'PIRO JIM'
p80
(dp81
g3
g8
sg4
F58.0
sg5
F0.0
sg6
g8
sg7
g8
sg9
g8
sg10
I47304
sg11
g8
sg12
g8
sg13
F16.0
sg14
g8
sg15
F1.0
sg16
F0.0625
sg17
I00
sg18
g8
sg19
F3.0
sg20
I47304
sg21
F0.0
ssS'RIEKER PAULA H'
p82
(dp83
g3
I249201
sg4
F1328.0
sg5
F0.02635542168674699
sg6
I1099100
sg7
g8
sg9
I700000
sg10
I1918887
sg11
I33271
sg12
I1635238
sg13
F82.0
sg14
I1950
sg15
F48.0
sg16
F0.5853658536585366
sg17
I01
sg18
I-100000
sg19
F1258.0
sg20
I283649
sg21
F35.0
ssS'WHALEY DAVID A'
p84
(dp85
g3
g8
sg4
F944.0
sg5
F0.028072033898305086
sg6
g8
sg7
g8
sg9
g8
sg10
I98718
sg11
g8
sg12
I98718
sg13
F41.0
sg14
g8
sg15
F6.0
sg16
F0.14634146341463414
sg17
I00
sg18
g8
sg19
F594.0
sg20
g8
sg21
F26.5
ssS'BECK SALLY W'
p86
(dp87
g3
I231330
sg4
F7315.0
sg5
F0.01968557758031442
sg6
I969068
sg7
g8
sg9
I700000
sg10
I126027
sg11
I37172
sg12
g8
sg13
F4343.0
sg14
I566
sg15
F386.0
sg16
F0.08887865530739121
sg17
I00
sg18
g8
sg19
F2639.0
sg20
I126027
sg21
F144.0
ssS'HAUG DAVID L'
p88
(dp89
g3
g8
sg4
F573.0
sg5
F0.006980802792321117
sg6
I475
sg7
g8
sg9
g8
sg10
I2217299
sg11
I475
sg12
g8
sg13
F19.0
sg14
g8
sg15
F7.0
sg16
F0.3684210526315789
sg17
I00
sg18
g8
sg19
F471.0
sg20
I2217299
sg21
F4.0
ssS'ECHOLS JOHN B'
p90
(dp91
g3
I182245
sg4
F944.0
sg5
F0.028072033898305086
sg6
I2692324
sg7
I2234774
sg9
I200000
sg10
I1008941
sg11
I21530
sg12
I601438
sg13
F41.0
sg14
I53775
sg15
F6.0
sg16
F0.14634146341463414
sg17
I00
sg18
g8
sg19
F594.0
sg20
I407503
sg21
F26.5
ssS'MENDELSOHN JOHN'
p92
(dp93
g3
g8
sg4
F944.0
sg5
F0.028072033898305086
sg6
I148
sg7
g8
sg9
g8
sg10
g8
sg11
I148
sg12
g8
sg13
F41.0
sg14
g8
sg15
F6.0
sg16
F0.14634146341463414
sg17
I00
sg18
I-103750
sg19
F594.0
sg20
g8
sg21
F26.5
ssS'HICKERSON GARY J'
p94
(dp95
g3
I211788
sg4
F1320.0
sg5
F0.030303030303030304
sg6
I2081796
sg7
I69223
sg9
I1700000
sg10
I441096
sg11
I98849
sg12
g8
sg13
F27.0
sg14
I1936
sg15
F1.0
sg16
F0.037037037037037035
sg17
I00
sg18
g8
sg19
F900.0
sg20
I441096
sg21
F40.0
ssS'CLINE KENNETH W'
p96
(dp97
g3
g8
sg4
F944.0
sg5
F0.028072033898305086
sg6
g8
sg7
g8
sg9
g8
sg10
I189518
sg11
g8
sg12
g8
sg13
F41.0
sg14
g8
sg15
F6.0
sg16
F0.14634146341463414
sg17
I00
sg18
g8
sg19
F594.0
sg20
I662086
sg21
F26.5
ssS'RICE KENNETH D'
p98
(dp99
g3
I420636
sg4
F905.0
sg5
F0.04640883977900553
sg6
I505050
sg7
I1617011
sg9
I1750000
sg10
I22542539
sg11
I46950
sg12
I19794175
sg13
F18.0
sg14
I174839
sg15
F4.0
sg16
F0.2222222222222222
sg17
I01
sg18
I-3504386
sg19
F864.0
sg20
I2748364
sg21
F42.0
ssS'HAYES ROBERT E'
p100
(dp101
g3
g8
sg4
F504.0
sg5
F0.031746031746031744
sg6
I7961
sg7
g8
sg9
g8
sg10
I151418
sg11
g8
sg12
g8
sg13
F12.0
sg14
g8
sg15
F0.0
sg16
F0.0
sg17
I00
sg18
g8
sg19
F50.0
sg20
I151418
sg21
F16.0
ssS'KOPPER MICHAEL J'
p102
(dp103
g3
I224305
sg4
F1875.0
sg5
F0.03306666666666667
sg6
I2652612
sg7
I602671
sg9
I800000
sg10
I985032
sg11
I118134
sg12
g8
sg13
F44.5
sg14
I907502
sg15
F15.5
sg16
F0.34831460674157305
sg17
I01
sg18
g8
sg19
F1589.0
sg20
I985032
sg21
F62.0
ssS'LEFF DANIEL P'
p104
(dp105
g3
I273746
sg4
F2822.0
sg5
F0.02374202693125443
sg6
I2664228
sg7
I1387399
sg9
I1000000
sg10
I360528
sg11
g8
sg12
g8
sg13
F63.0
sg14
I3083
sg15
F14.0
sg16
F0.2222222222222222
sg17
I00
sg18
g8
sg19
F2672.0
sg20
I360528
sg21
F67.0
ssS'LAVORATO JOHN J'
p106
(dp107
g3
I339288
sg4
F7259.0
sg5
F0.07273729163796666
sg6
I10425757
sg7
I2035380
sg9
I8000000
sg10
I5167144
sg11
I49537
sg12
I4158995
sg13
F2585.0
sg14
I1552
sg15
F411.0
sg16
F0.15899419729206962
sg17
I00
sg18
g8
sg19
F3962.0
sg20
I1008149
sg21
F528.0
ssS'BERBERIAN DAVID'
p108
(dp109
g3
I216582
sg4
F944.0
sg5
F0.028072033898305086
sg6
I228474
sg7
g8
sg9
g8
sg10
I2493616
sg11
I11892
sg12
I1624396
sg13
F41.0
sg14
g8
sg15
F6.0
sg16
F0.14634146341463414
sg17
I00
sg18
g8
sg19
F594.0
sg20
I869220
sg21
F26.5
ssS'DETMERING TIMOTHY J'
p110
(dp111
g3
I210500
sg4
F944.0
sg5
F0.028072033898305086
sg6
I1204583
sg7
I415657
sg9
I425000
sg10
I2027865
sg11
I52255
sg12
I2027865
sg13
F41.0
sg14
I1105
sg15
F6.0
sg16
F0.14634146341463414
sg17
I00
sg18
I-775241
sg19
F594.0
sg20
I315068
sg21
F26.5
ssS'WAKEHAM JOHN'
p112
(dp113
g3
g8
sg4
F944.0
sg5
F0.028072033898305086
sg6
I213071
sg7
g8
sg9
g8
sg10
g8
sg11
I103773
sg12
g8
sg13
F41.0
sg14
g8
sg15
F6.0
sg16
F0.14634146341463414
sg17
I00
sg18
g8
sg19
F594.0
sg20
g8
sg21
F26.5
ssS'POWERS WILLIAM'
p114
(dp115
g3
g8
sg4
F653.0
sg5
F0.0
sg6
g8
sg7
g8
sg9
g8
sg10
g8
sg11
g8
sg12
g8
sg13
F26.0
sg14
g8
sg15
F0.0
sg16
F0.0
sg17
I00
sg18
I-17500
sg19
F12.0
sg20
g8
sg21
F0.0
ssS'GOLD JOSEPH'
p116
(dp117
g3
I272880
sg4
F944.0
sg5
F0.028072033898305086
sg6
I2146973
sg7
I304805
sg9
I750000
sg10
I877611
sg11
g8
sg12
I436515
sg13
F41.0
sg14
I819288
sg15
F6.0
sg16
F0.14634146341463414
sg17
I00
sg18
g8
sg19
F594.0
sg20
I441096
sg21
F26.5
ssS'BANNANTINE JAMES M'
p118
(dp119
g3
I477
sg4
F566.0
sg5
F0.06890459363957598
sg6
I916197
sg7
g8
sg9
g8
sg10
I5243487
sg11
I56301
sg12
I4046157
sg13
F29.0
sg14
I864523
sg15
F0.0
sg16
F0.0
sg17
I00
sg18
I-5104
sg19
F465.0
sg20
I1757552
sg21
F39.0
ssS'DUNCAN JOHN H'
p120
(dp121
g3
g8
sg4
F944.0
sg5
F0.028072033898305086
sg6
I77492
sg7
g8
sg9
g8
sg10
I371750
sg11
g8
sg12
I371750
sg13
F41.0
sg14
g8
sg15
F6.0
sg16
F0.14634146341463414
sg17
I00
sg18
I-25000
sg19
F594.0
sg20
g8
sg21
F26.5
ssS'SHAPIRO RICHARD S'
p122
(dp123
g3
I269076
sg4
F15149.0
sg5
F0.0048848108786058485
sg6
I1057548
sg7
g8
sg9
I650000
sg10
I987001
sg11
I137767
sg12
I607837
sg13
F1215.0
sg14
I705
sg15
F65.0
sg16
F0.053497942386831275
sg17
I00
sg18
g8
sg19
F4527.0
sg20
I379164
sg21
F74.0
ssS'SHERRIFF JOHN R'
p124
(dp125
g3
I428780
sg4
F3187.0
sg5
F0.008785691873235017
sg6
I4335388
sg7
I554422
sg9
I1500000
sg10
I3128982
sg11
g8
sg12
I1835558
sg13
F92.0
sg14
I1852186
sg15
F23.0
sg16
F0.25
sg17
I00
sg18
g8
sg19
F2103.0
sg20
I1293424
sg21
F28.0
ssS'SHELBY REX'
p126
(dp127
g3
I211844
sg4
F225.0
sg5
F0.057777777777777775
sg6
I2003885
sg7
g8
sg9
I200000
sg10
I2493616
sg11
I22884
sg12
I1624396
sg13
F39.0
sg14
I1573324
sg15
F14.0
sg16
F0.358974358974359
sg17
I01
sg18
I-4167
sg19
F91.0
sg20
I869220
sg21
F13.0
ssS'LEMAISTRE CHARLES'
p128
(dp129
g3
g8
sg4
F944.0
sg5
F0.028072033898305086
sg6
I87492
sg7
g8
sg9
g8
sg10
I412878
sg11
g8
sg12
I412878
sg13
F41.0
sg14
g8
sg15
F6.0
sg16
F0.14634146341463414
sg17
I00
sg18
I-25000
sg19
F594.0
sg20
g8
sg21
F26.5
ssS'DEFFNER JOSEPH M'
p130
(dp131
g3
I206121
sg4
F714.0
sg5
F0.16106442577030813
sg6
I1208649
sg7
I335349
sg9
I600000
sg10
I159211
sg11
I41626
sg12
I17378
sg13
F74.0
sg14
I25553
sg15
F4.0
sg16
F0.05405405405405406
sg17
I00
sg18
g8
sg19
F552.0
sg20
I141833
sg21
F115.0
ssS'KISHKILL JOSEPH G'
p132
(dp133
g3
I174246
sg4
F944.0
sg5
F0.028072033898305086
sg6
I704896
sg7
g8
sg9
g8
sg10
I1034346
sg11
I116335
sg12
g8
sg13
F41.0
sg14
I465357
sg15
F6.0
sg16
F0.14634146341463414
sg17
I00
sg18
I-51042
sg19
F594.0
sg20
I1034346
sg21
F26.5
ssS'WHALLEY LAWRENCE G'
p134
(dp135
g3
I510364
sg4
F6019.0
sg5
F0.03090214321315833
sg6
I4677574
sg7
I808346
sg9
I3000000
sg10
I6079137
sg11
I57838
sg12
I3282960
sg13
F556.0
sg14
I301026
sg15
F24.0
sg16
F0.04316546762589928
sg17
I00
sg18
g8
sg19
F3920.0
sg20
I2796177
sg21
F186.0
ssS'MCCARTY DANNY J'
p136
(dp137
g3
g8
sg4
F1433.0
sg5
F0.017445917655268667
sg6
g8
sg7
g8
sg9
g8
sg10
I758931
sg11
g8
sg12
I664375
sg13
F215.0
sg14
g8
sg15
F2.0
sg16
F0.009302325581395349
sg17
I00
sg18
g8
sg19
F508.0
sg20
I94556
sg21
F25.0
ssS'MCCONNELL MICHAEL S'
p138
(dp139
g3
I365038
sg4
F3329.0
sg5
F0.02763592670471613
sg6
I2101364
sg7
I554422
sg9
I1100000
sg10
I3101279
sg11
I81364
sg12
I1623010
sg13
F2742.0
sg14
I540
sg15
F194.0
sg16
F0.07075127644055434
sg17
I00
sg18
g8
sg19
F2189.0
sg20
I1478269
sg21
F92.0
ssS'DELAINEY DAVID W'
p140
(dp141
g3
I365163
sg4
F3093.0
sg5
F0.02133850630455868
sg6
I4747979
sg7
I1294981
sg9
I3000000
sg10
I3614261
sg11
I86174
sg12
I2291113
sg13
F3069.0
sg14
I1661
sg15
F609.0
sg16
F0.198435972629521
sg17
I01
sg18
g8
sg19
F2097.0
sg20
I1323148
sg21
F66.0
ssS'SULLIVAN-SHAKLOVITZ COLLEEN'
p142
(dp143
g3
I162779
sg4
F944.0
sg5
F0.028072033898305086
sg6
I999356
sg7
I554422
sg9
I100000
sg10
I1362375
sg11
g8
sg12
I1362375
sg13
F41.0
sg14
I162
sg15
F6.0
sg16
F0.14634146341463414
sg17
I00
sg18
g8
sg19
F594.0
sg20
g8
sg21
F26.5
ssS'WROBEL BRUCE'
p144
(dp145
g3
g8
sg4
F944.0
sg5
F0.028072033898305086
sg6
g8
sg7
g8
sg9
g8
sg10
I139130
sg11
g8
sg12
I139130
sg13
F41.0
sg14
g8
sg15
F6.0
sg16
F0.14634146341463414
sg17
I00
sg18
g8
sg19
F594.0
sg20
g8
sg21
F26.5
ssS'FOY JOE'
p146
(dp147
g3
g8
sg4
F57.0
sg5
F0.0
sg6
I181755
sg7
g8
sg9
g8
sg10
I343434
sg11
g8
sg12
I343434
sg13
F13.0
sg14
g8
sg15
F0.0
sg16
F0.0
sg17
I00
sg18
g8
sg19
F2.0
sg20
g8
sg21
F0.0
ssS'MEYER JEROME J'
p148
(dp149
g3
g8
sg4
F944.0
sg5
F0.028072033898305086
sg6
I2151
sg7
g8
sg9
g8
sg10
g8
sg11
I2151
sg12
g8
sg13
F41.0
sg14
g8
sg15
F6.0
sg16
F0.14634146341463414
sg17
I00
sg18
I-38346
sg19
F594.0
sg20
g8
sg21
F26.5
ssS'LAY KENNETH L'
p150
(dp151
g3
I1072321
sg4
F4273.0
sg5
F0.028785396676807865
sg6
I103559793
sg7
I3600000
sg9
I7000000
sg10
I49110078
sg11
I99832
sg12
I34348384
sg13
F36.0
sg14
I10359729
sg15
F16.0
sg16
F0.4444444444444444
sg17
I01
sg18
I-300000
sg19
F2411.0
sg20
I14761694
sg21
F123.0
ssS'BUTTS ROBERT H'
p152
(dp153
g3
I261516
sg4
F944.0
sg5
F0.028072033898305086
sg6
I1271582
sg7
I175000
sg9
I750000
sg10
I417619
sg11
I9410
sg12
g8
sg13
F41.0
sg14
I150656
sg15
F6.0
sg16
F0.14634146341463414
sg17
I00
sg18
I-75000
sg19
F594.0
sg20
I417619
sg21
F26.5
ssS'OLSON CINDY K'
p154
(dp155
g3
I329078
sg4
F1184.0
sg5
F0.016891891891891893
sg6
I1321557
sg7
I100000
sg9
I750000
sg10
I2606763
sg11
I63791
sg12
I1637034
sg13
F52.0
sg14
I972
sg15
F15.0
sg16
F0.28846153846153844
sg17
I00
sg18
g8
sg19
F856.0
sg20
I969729
sg21
F20.0
ssS'MCDONALD REBECCA'
p156
(dp157
g3
g8
sg4
F894.0
sg5
F0.06040268456375839
sg6
g8
sg7
g8
sg9
g8
sg10
I1691366
sg11
g8
sg12
I757301
sg13
F13.0
sg14
g8
sg15
F1.0
sg16
F0.07692307692307693
sg17
I00
sg18
g8
sg19
F720.0
sg20
I934065
sg21
F54.0
ssS'CUMBERLAND MICHAEL S'
p158
(dp159
g3
I184899
sg4
F944.0
sg5
F0.028072033898305086
sg6
I807956
sg7
I275000
sg9
I325000
sg10
I207940
sg11
I22344
sg12
g8
sg13
F41.0
sg14
I713
sg15
F6.0
sg16
F0.14634146341463414
sg17
I00
sg18
g8
sg19
F594.0
sg20
I207940
sg21
F26.5
ssS'GAHN ROBERT S'
p160
(dp161
g3
I192008
sg4
F944.0
sg5
F0.028072033898305086
sg6
I900585
sg7
g8
sg9
I509870
sg10
I318607
sg11
I50080
sg12
I83237
sg13
F41.0
sg14
I76547
sg15
F6.0
sg16
F0.14634146341463414
sg17
I00
sg18
I-1042
sg19
F594.0
sg20
I235370
sg21
F26.5
ssS'MCCLELLAN GEORGE'
p162
(dp163
g3
I263413
sg4
F1744.0
sg5
F0.02981651376146789
sg6
I1318763
sg7
g8
sg9
I900000
sg10
I947861
sg11
I228763
sg12
I506765
sg13
F49.0
sg14
I51587
sg15
F0.0
sg16
F0.0
sg17
I00
sg18
I-125000
sg19
F1469.0
sg20
I441096
sg21
F52.0
ssS'HERMANN ROBERT J'
p164
(dp165
g3
I262663
sg4
F944.0
sg5
F0.028072033898305086
sg6
I1297461
sg7
I150000
sg9
I700000
sg10
I668132
sg11
I48357
sg12
I187500
sg13
F41.0
sg14
I416441
sg15
F6.0
sg16
F0.14634146341463414
sg17
I00
sg18
I-280000
sg19
F594.0
sg20
I480632
sg21
F26.5
ssS'SCRIMSHAW MATTHEW'
p166
(dp167
g3
g8
sg4
F944.0
sg5
F0.028072033898305086
sg6
g8
sg7
g8
sg9
g8
sg10
I759557
sg11
g8
sg12
I759557
sg13
F41.0
sg14
g8
sg15
F6.0
sg16
F0.14634146341463414
sg17
I00
sg18
g8
sg19
F594.0
sg20
g8
sg21
F26.5
ssS'GATHMANN WILLIAM D'
p168
(dp169
g3
g8
sg4
F944.0
sg5
F0.028072033898305086
sg6
g8
sg7
g8
sg9
g8
sg10
I1945360
sg11
g8
sg12
I1753766
sg13
F41.0
sg14
g8
sg15
F6.0
sg16
F0.14634146341463414
sg17
I00
sg18
g8
sg19
F594.0
sg20
I264013
sg21
F26.5
ssS'HAEDICKE MARK E'
p170
(dp171
g3
I374125
sg4
F4009.0
sg5
F0.04489897730107259
sg6
I3859065
sg7
I983346
sg9
I1150000
sg10
I803094
sg11
I76169
sg12
I608750
sg13
F1941.0
sg14
I52382
sg15
F61.0
sg16
F0.03142709943328181
sg17
I00
sg18
I-934484
sg19
F1847.0
sg20
I524169
sg21
F180.0
ssS'BOWEN JR RAYMOND M'
p172
(dp173
g3
I278601
sg4
F1858.0
sg5
F0.07534983853606028
sg6
I2669589
sg7
I974293
sg9
I1350000
sg10
I252055
sg11
I65907
sg12
g8
sg13
F27.0
sg14
I1621
sg15
F15.0
sg16
F0.5555555555555556
sg17
I01
sg18
I-833
sg19
F1593.0
sg20
I252055
sg21
F140.0
ssS'GILLIS JOHN'
p174
(dp175
g3
g8
sg4
F944.0
sg5
F0.028072033898305086
sg6
g8
sg7
g8
sg9
g8
sg10
I85641
sg11
g8
sg12
I9803
sg13
F41.0
sg14
g8
sg15
F6.0
sg16
F0.14634146341463414
sg17
I00
sg18
g8
sg19
F594.0
sg20
I75838
sg21
F26.5
ssS'FITZGERALD JAY L'
p176
(dp177
g3
I199157
sg4
F936.0
sg5
F0.0010683760683760685
sg6
I1414857
sg7
I556416
sg9
I350000
sg10
I1621236
sg11
I23870
sg12
I664461
sg13
F16.0
sg14
I285414
sg15
F8.0
sg16
F0.5
sg17
I00
sg18
g8
sg19
F723.0
sg20
I956775
sg21
F1.0
ssS'MORAN MICHAEL P'
p178
(dp179
g3
g8
sg4
F672.0
sg5
F0.0
sg6
g8
sg7
g8
sg9
g8
sg10
I221141
sg11
g8
sg12
I59539
sg13
F19.0
sg14
g8
sg15
F0.0
sg16
F0.0
sg17
I00
sg18
g8
sg19
F127.0
sg20
I161602
sg21
F0.0
ssS'REDMOND BRIAN L'
p180
(dp181
g3
I96840
sg4
F1671.0
sg5
F0.12208258527827648
sg6
I111529
sg7
g8
sg9
g8
sg10
I7890324
sg11
I14689
sg12
I7509039
sg13
F221.0
sg14
g8
sg15
F49.0
sg16
F0.22171945701357465
sg17
I00
sg18
g8
sg19
F1063.0
sg20
I381285
sg21
F204.0
ssS'BAZELIDES PHILIP J'
p182
(dp183
g3
I80818
sg4
F944.0
sg5
F0.028072033898305086
sg6
I860136
sg7
I93750
sg9
g8
sg10
I1599641
sg11
g8
sg12
I1599641
sg13
F41.0
sg14
I874
sg15
F6.0
sg16
F0.14634146341463414
sg17
I00
sg18
g8
sg19
F594.0
sg20
g8
sg21
F26.5
ssS'BELDEN TIMOTHY N'
p184
(dp185
g3
I213999
sg4
F7991.0
sg5
F0.028532098610937303
sg6
I5501630
sg7
g8
sg9
I5249999
sg10
I1110705
sg11
I17355
sg12
I953136
sg13
F484.0
sg14
I210698
sg15
F108.0
sg16
F0.2231404958677686
sg17
I01
sg18
I-2334434
sg19
F5521.0
sg20
I157569
sg21
F228.0
ssS'DURAN WILLIAM D'
p186
(dp187
g3
I210692
sg4
F904.0
sg5
F0.1172566371681416
sg6
I2093263
sg7
I1105218
sg9
I750000
sg10
I1640910
sg11
I25785
sg12
I1451869
sg13
F12.0
sg14
I1568
sg15
F3.0
sg16
F0.25
sg17
I00
sg18
g8
sg19
F599.0
sg20
I189041
sg21
F106.0
ssS'THORN TERENCE H'
p188
(dp189
g3
I222093
sg4
F266.0
sg5
F0.0
sg6
I911453
sg7
I200000
sg9
g8
sg10
I4817796
sg11
I46145
sg12
I4452476
sg13
F41.0
sg14
I426629
sg15
F0.0
sg16
F0.0
sg17
I00
sg18
g8
sg19
F73.0
sg20
I365320
sg21
F0.0
ssS'LINDHOLM TOD A'
p190
(dp191
g3
I236457
sg4
F944.0
sg5
F0.028072033898305086
sg6
I875889
sg7
I175000
sg9
I200000
sg10
I3064208
sg11
I57727
sg12
I2549361
sg13
F41.0
sg14
I2630
sg15
F6.0
sg16
F0.14634146341463414
sg17
I00
sg18
g8
sg19
F594.0
sg20
I514847
sg21
F26.5
ssS'FASTOW ANDREW S'
p192
(dp193
g3
I440698
sg4
F1875.0
sg5
F0.03306666666666667
sg6
I2424083
sg7
I1736055
sg9
I1300000
sg10
I1794412
sg11
I55921
sg12
g8
sg13
F44.5
sg14
I277464
sg15
F15.5
sg16
F0.34831460674157305
sg17
I01
sg18
I-1386055
sg19
F1589.0
sg20
I1794412
sg21
F62.0
ssS'CALGER CHRISTOPHER F'
p194
(dp195
g3
I240189
sg4
F2598.0
sg5
F0.07659738260200154
sg6
I1639297
sg7
I375304
sg9
I1250000
sg10
I126027
sg11
I35818
sg12
g8
sg13
F144.0
sg14
I486
sg15
F25.0
sg16
F0.1736111111111111
sg17
I01
sg18
I-262500
sg19
F2188.0
sg20
I126027
sg21
F199.0
ssS'LEWIS RICHARD'
p196
(dp197
g3
g8
sg4
F952.0
sg5
F0.01050420168067227
sg6
g8
sg7
g8
sg9
g8
sg10
I850477
sg11
g8
sg12
I850477
sg13
F26.0
sg14
g8
sg15
F0.0
sg16
F0.0
sg17
I00
sg18
g8
sg19
F739.0
sg20
g8
sg21
F10.0
ssS'KAMINSKI WINCENTY J'
p198
(dp199
g3
I275101
sg4
F4607.0
sg5
F0.008899500759713479
sg6
I1086821
sg7
I323466
sg9
I400000
sg10
I976037
sg11
I83585
sg12
I850010
sg13
F14368.0
sg14
I4669
sg15
F171.0
sg16
F0.011901447661469933
sg17
I00
sg18
g8
sg19
F583.0
sg20
I126027
sg21
F41.0
ssS'LOCKHART EUGENE E'
p200
(dp201
g3
g8
sg4
F944.0
sg5
F0.028072033898305086
sg6
g8
sg7
g8
sg9
g8
sg10
g8
sg11
g8
sg12
g8
sg13
F41.0
sg14
g8
sg15
F6.0
sg16
F0.14634146341463414
sg17
I00
sg18
g8
sg19
F594.0
sg20
g8
sg21
F26.5
ssS'COX DAVID'
p202
(dp203
g3
I314288
sg4
F102.0
sg5
F0.0
sg6
I1101393
sg7
g8
sg9
I800000
sg10
I495633
sg11
I27861
sg12
I117551
sg13
F33.0
sg14
I494
sg15
F4.0
sg16
F0.12121212121212122
sg17
I00
sg18
I-41250
sg19
F71.0
sg20
I378082
sg21
F0.0
ssS'OVERDYKE JR JERE C'
p204
(dp205
g3
I94941
sg4
F944.0
sg5
F0.028072033898305086
sg6
I249787
sg7
I135836
sg9
g8
sg10
I7307594
sg11
I18834
sg12
I5266578
sg13
F41.0
sg14
I176
sg15
F6.0
sg16
F0.14634146341463414
sg17
I00
sg18
g8
sg19
F594.0
sg20
I2041016
sg21
F26.5
ssS'PEREIRA PAULO V. FERRAZ'
p206
(dp207
g3
g8
sg4
F944.0
sg5
F0.028072033898305086
sg6
I27942
sg7
g8
sg9
g8
sg10
g8
sg11
I27942
sg12
g8
sg13
F41.0
sg14
g8
sg15
F6.0
sg16
F0.14634146341463414
sg17
I00
sg18
I-101250
sg19
F594.0
sg20
g8
sg21
F26.5
ssS'STABLER FRANK'
p208
(dp209
g3
I239502
sg4
F944.0
sg5
F0.028072033898305086
sg6
I1112087
sg7
g8
sg9
I500000
sg10
I511734
sg11
I16514
sg12
g8
sg13
F41.0
sg14
I356071
sg15
F6.0
sg16
F0.14634146341463414
sg17
I00
sg18
g8
sg19
F594.0
sg20
I511734
sg21
F26.5
ssS'SKILLING JEFFREY K'
p210
(dp211
g3
I1111258
sg4
F3627.0
sg5
F0.0242624758753791
sg6
I8682716
sg7
I1920000
sg9
I5600000
sg10
I26093672
sg11
I29336
sg12
I19250000
sg13
F108.0
sg14
I22122
sg15
F30.0
sg16
F0.2777777777777778
sg17
I01
sg18
g8
sg19
F2042.0
sg20
I6843672
sg21
F88.0
ssS'BLAKE JR. NORMAN P'
p212
(dp213
g3
g8
sg4
F944.0
sg5
F0.028072033898305086
sg6
I1279
sg7
g8
sg9
g8
sg10
g8
sg11
I1279
sg12
g8
sg13
F41.0
sg14
g8
sg15
F6.0
sg16
F0.14634146341463414
sg17
I00
sg18
I-113784
sg19
F594.0
sg20
g8
sg21
F26.5
ssS'SHERRICK JEFFREY B'
p214
(dp215
g3
g8
sg4
F613.0
sg5
F0.0636215334420881
sg6
g8
sg7
g8
sg9
g8
sg10
I1832468
sg11
g8
sg12
I1426469
sg13
F25.0
sg14
g8
sg15
F18.0
sg16
F0.72
sg17
I00
sg18
g8
sg19
F583.0
sg20
I405999
sg21
F39.0
ssS'PRENTICE JAMES'
p216
(dp217
g3
g8
sg4
F944.0
sg5
F0.028072033898305086
sg6
I564348
sg7
g8
sg9
g8
sg10
I1095040
sg11
g8
sg12
I886231
sg13
F41.0
sg14
g8
sg15
F6.0
sg16
F0.14634146341463414
sg17
I00
sg18
g8
sg19
F594.0
sg20
I208809
sg21
F26.5
ssS'GRAY RODNEY'
p218
(dp219
g3
I6615
sg4
F944.0
sg5
F0.028072033898305086
sg6
I1146658
sg7
I365625
sg9
g8
sg10
g8
sg11
g8
sg12
g8
sg13
F41.0
sg14
I680833
sg15
F6.0
sg16
F0.14634146341463414
sg17
I00
sg18
g8
sg19
F594.0
sg20
g8
sg21
F26.5
ssS'PICKERING MARK R'
p220
(dp221
g3
I655037
sg4
F898.0
sg5
F0.0077951002227171495
sg6
I1386690
sg7
g8
sg9
I300000
sg10
I28798
sg11
I31653
sg12
I28798
sg13
F67.0
sg14
g8
sg15
F0.0
sg16
F0.0
sg17
I00
sg18
g8
sg19
F728.0
sg20
g8
sg21
F7.0
ssS'THE TRAVEL AGENCY IN THE PARK'
p222
(dp223
g3
g8
sg4
F944.0
sg5
F0.028072033898305086
sg6
I362096
sg7
g8
sg9
g8
sg10
g8
sg11
g8
sg12
g8
sg13
F41.0
sg14
I362096
sg15
F6.0
sg16
F0.14634146341463414
sg17
I00
sg18
g8
sg19
F594.0
sg20
g8
sg21
F26.5
ssS'NOLES JAMES L'
p224
(dp225
g3
g8
sg4
F944.0
sg5
F0.028072033898305086
sg6
I774401
sg7
g8
sg9
g8
sg10
I368705
sg11
g8
sg12
g8
sg13
F41.0
sg14
g8
sg15
F6.0
sg16
F0.14634146341463414
sg17
I00
sg18
g8
sg19
F594.0
sg20
I463261
sg21
F26.5
ssS'KEAN STEVEN J'
p226
(dp227
g3
I404338
sg4
F12754.0
sg5
F0.010976948408342482
sg6
I1747522
sg7
I300000
sg9
I1000000
sg10
I6153642
sg11
I41953
sg12
I2022048
sg13
F6759.0
sg14
I1231
sg15
F387.0
sg16
F0.05725699067909454
sg17
I00
sg18
g8
sg19
F3639.0
sg20
I4131594
sg21
F140.0
ssS'FOWLER PEGGY'
p228
(dp229
g3
g8
sg4
F517.0
sg5
F0.0
sg6
g8
sg7
g8
sg9
g8
sg10
I1884748
sg11
g8
sg12
I1324578
sg13
F36.0
sg14
g8
sg15
F0.0
sg16
F0.0
sg17
I00
sg18
g8
sg19
F10.0
sg20
I560170
sg21
F0.0
ssS'WASAFF GEORGE'
p230
(dp231
g3
I259996
sg4
F400.0
sg5
F0.055
sg6
I1034395
sg7
I200000
sg9
I325000
sg10
I2056427
sg11
g8
sg12
I1668260
sg13
F30.0
sg14
I1425
sg15
F7.0
sg16
F0.23333333333333334
sg17
I00
sg18
I-583325
sg19
F337.0
sg20
I388167
sg21
F22.0
ssS'WHITE JR THOMAS E'
p232
(dp233
g3
I317543
sg4
F944.0
sg5
F0.028072033898305086
sg6
I1934359
sg7
g8
sg9
I450000
sg10
I15144123
sg11
I81353
sg12
I1297049
sg13
F41.0
sg14
I1085463
sg15
F6.0
sg16
F0.14634146341463414
sg17
I00
sg18
g8
sg19
F594.0
sg20
I13847074
sg21
F26.5
ssS'CHRISTODOULOU DIOMEDES'
p234
(dp235
g3
g8
sg4
F944.0
sg5
F0.028072033898305086
sg6
g8
sg7
g8
sg9
g8
sg10
I6077885
sg11
g8
sg12
I5127155
sg13
F41.0
sg14
g8
sg15
F6.0
sg16
F0.14634146341463414
sg17
I00
sg18
g8
sg19
F594.0
sg20
I950730
sg21
F26.5
ssS'ALLEN PHILLIP K'
p236
(dp237
g3
I201955
sg4
F2902.0
sg5
F0.016195727084769126
sg6
I4484442
sg7
I304805
sg9
I4175000
sg10
I1729541
sg11
I13868
sg12
I1729541
sg13
F2195.0
sg14
I152
sg15
F65.0
sg16
F0.029612756264236904
sg17
I00
sg18
I-3081055
sg19
F1407.0
sg20
I126027
sg21
F47.0
ssS'SHARP VICTORIA T'
p238
(dp239
g3
I248146
sg4
F3136.0
sg5
F0.007653061224489796
sg6
I1576511
sg7
I422158
sg9
I600000
sg10
I494136
sg11
I116337
sg12
I281073
sg13
F136.0
sg14
I2401
sg15
F6.0
sg16
F0.04411764705882353
sg17
I00
sg18
g8
sg19
F2477.0
sg20
I213063
sg21
F24.0
ssS'JAEDICKE ROBERT'
p240
(dp241
g3
g8
sg4
F944.0
sg5
F0.028072033898305086
sg6
I83750
sg7
g8
sg9
g8
sg10
I431750
sg11
g8
sg12
I431750
sg13
F41.0
sg14
g8
sg15
F6.0
sg16
F0.14634146341463414
sg17
I00
sg18
I-25000
sg19
F594.0
sg20
I44093
sg21
F26.5
ssS'WINOKUR JR. HERBERT S'
p242
(dp243
g3
g8
sg4
F944.0
sg5
F0.028072033898305086
sg6
I84992
sg7
g8
sg9
g8
sg10
g8
sg11
I1413
sg12
g8
sg13
F41.0
sg14
g8
sg15
F6.0
sg16
F0.14634146341463414
sg17
I00
sg18
I-25000
sg19
F594.0
sg20
g8
sg21
F26.5
ssS'BROWN MICHAEL'
p244
(dp245
g3
g8
sg4
F1486.0
sg5
F0.008748317631224764
sg6
I49288
sg7
g8
sg9
g8
sg10
g8
sg11
I49288
sg12
g8
sg13
F41.0
sg14
g8
sg15
F1.0
sg16
F0.024390243902439025
sg17
I00
sg18
g8
sg19
F761.0
sg20
g8
sg21
F13.0
ssS'BADUM JAMES P'
p246
(dp247
g3
g8
sg4
F944.0
sg5
F0.028072033898305086
sg6
I182466
sg7
g8
sg9
g8
sg10
I257817
sg11
I3486
sg12
I257817
sg13
F41.0
sg14
g8
sg15
F6.0
sg16
F0.14634146341463414
sg17
I00
sg18
g8
sg19
F594.0
sg20
g8
sg21
F26.5
ssS'HUGHES JAMES A'
p248
(dp249
g3
g8
sg4
F719.0
sg5
F0.048678720445062586
sg6
g8
sg7
g8
sg9
g8
sg10
I1118394
sg11
g8
sg12
I754966
sg13
F34.0
sg14
g8
sg15
F5.0
sg16
F0.14705882352941177
sg17
I00
sg18
g8
sg19
F589.0
sg20
I363428
sg21
F35.0
ssS'REYNOLDS LAWRENCE'
p250
(dp251
g3
I76399
sg4
F944.0
sg5
F0.028072033898305086
sg6
I394475
sg7
I156250
sg9
I100000
sg10
I4221891
sg11
I8409
sg12
I4160672
sg13
F41.0
sg14
I202052
sg15
F6.0
sg16
F0.14634146341463414
sg17
I00
sg18
I-200000
sg19
F594.0
sg20
I201483
sg21
F26.5
ssS'DIMICHELE RICHARD G'
p252
(dp253
g3
I262788
sg4
F944.0
sg5
F0.028072033898305086
sg6
I2368151
sg7
I694862
sg9
I1000000
sg10
I8317782
sg11
I35812
sg12
I8191755
sg13
F41.0
sg14
I374689
sg15
F6.0
sg16
F0.14634146341463414
sg17
I00
sg18
g8
sg19
F594.0
sg20
I126027
sg21
F26.5
ssS'BHATNAGAR SANJAY'
p254
(dp255
g3
g8
sg4
F523.0
sg5
F0.0
sg6
I15456290
sg7
g8
sg9
g8
sg10
S'NaN'
p256
sg11
g8
sg12
I2604490
sg13
F29.0
sg14
I137864
sg15
F1.0
sg16
F0.034482758620689655
sg17
I00
sg18
g8
sg19
F463.0
sg20
I-2604490
sg21
F0.0
ssS'CARTER REBECCA C'
p257
(dp258
g3
I261809
sg4
F312.0
sg5
F0.09294871794871795
sg6
I477557
sg7
I75000
sg9
I300000
sg10
g8
sg11
g8
sg12
g8
sg13
F15.0
sg14
I540
sg15
F7.0
sg16
F0.4666666666666667
sg17
I00
sg18
I-159792
sg19
F196.0
sg20
I307301
sg21
F29.0
ssS'BUCHANAN HAROLD G'
p259
(dp260
g3
I248017
sg4
F1088.0
sg5
F0.0
sg6
I1054637
sg7
I304805
sg9
I500000
sg10
I1014505
sg11
I600
sg12
I825464
sg13
F125.0
sg14
I1215
sg15
F0.0
sg16
F0.0
sg17
I00
sg18
g8
sg19
F23.0
sg20
I189041
sg21
F0.0
ssS'YEAP SOON'
p261
(dp262
g3
g8
sg4
F944.0
sg5
F0.028072033898305086
sg6
I55097
sg7
g8
sg9
g8
sg10
I192758
sg11
I55097
sg12
I192758
sg13
F41.0
sg14
g8
sg15
F6.0
sg16
F0.14634146341463414
sg17
I00
sg18
g8
sg19
F594.0
sg20
g8
sg21
F26.5
ssS'MURRAY JULIA H'
p263
(dp264
g3
I229284
sg4
F2192.0
sg5
F0.005018248175182482
sg6
I812194
sg7
I125000
sg9
I400000
sg10
I597461
sg11
I57580
sg12
I400478
sg13
F45.0
sg14
I330
sg15
F2.0
sg16
F0.044444444444444446
sg17
I00
sg18
g8
sg19
F395.0
sg20
I196983
sg21
F11.0
ssS'GARLAND C KEVIN'
p265
(dp266
g3
I231946
sg4
F209.0
sg5
F0.04784688995215311
sg6
I1566469
sg7
I375304
sg9
I850000
sg10
I896153
sg11
I48405
sg12
I636246
sg13
F44.0
sg14
I60814
sg15
F27.0
sg16
F0.6136363636363636
sg17
I00
sg18
g8
sg19
F178.0
sg20
I259907
sg21
F10.0
ssS'DODSON KEITH'
p267
(dp268
g3
I221003
sg4
F176.0
sg5
F0.056818181818181816
sg6
I319941
sg7
g8
sg9
I70000
sg10
g8
sg11
I28164
sg12
g8
sg13
F14.0
sg14
I774
sg15
F3.0
sg16
F0.21428571428571427
sg17
I00
sg18
g8
sg19
F114.0
sg20
g8
sg21
F10.0
ssS'YEAGER F SCOTT'
p269
(dp270
g3
I158403
sg4
F1875.0
sg5
F0.03306666666666667
sg6
I360300
sg7
g8
sg9
g8
sg10
I11884758
sg11
I53947
sg12
I8308552
sg13
F44.5
sg14
I147950
sg15
F15.5
sg16
F0.34831460674157305
sg17
I01
sg18
g8
sg19
F1589.0
sg20
I3576206
sg21
F62.0
ssS'HIRKO JOSEPH'
p271
(dp272
g3
g8
sg4
F1875.0
sg5
F0.03306666666666667
sg6
I91093
sg7
g8
sg9
g8
sg10
I30766064
sg11
I77978
sg12
I30766064
sg13
F44.5
sg14
I2856
sg15
F15.5
sg16
F0.34831460674157305
sg17
I01
sg18
g8
sg19
F1589.0
sg20
g8
sg21
F62.0
ssS'DIETRICH JANET R'
p273
(dp274
g3
I250100
sg4
F2572.0
sg5
F0.11858475894245724
sg6
I1410464
sg7
I556416
sg9
I600000
sg10
I1865087
sg11
I3475
sg12
I1550019
sg13
F63.0
sg14
I473
sg15
F14.0
sg16
F0.2222222222222222
sg17
I00
sg18
g8
sg19
F1902.0
sg20
I315068
sg21
F305.0
ssS'DERRICK JR. JAMES V'
p275
(dp276
g3
I492375
sg4
F2181.0
sg5
F0.029344337459880788
sg6
I550981
sg7
I484000
sg9
I800000
sg10
I8831913
sg11
I51124
sg12
I8831913
sg13
F909.0
sg14
I7482
sg15
F20.0
sg16
F0.022002200220022004
sg17
I00
sg18
I-1284000
sg19
F1401.0
sg20
I1787380
sg21
F64.0
ssS'FREVERT MARK A'
p277
(dp278
g3
I1060932
sg4
F3275.0
sg5
F0.07389312977099237
sg6
I17252530
sg7
I1617011
sg9
I2000000
sg10
I14622185
sg11
I86987
sg12
I10433518
sg13
F21.0
sg14
I7427621
sg15
F6.0
sg16
F0.2857142857142857
sg17
I00
sg18
I-3367011
sg19
F2979.0
sg20
I4188667
sg21
F242.0
ssS'PAI LOU L'
p279
(dp280
g3
I261879
sg4
F944.0
sg5
F0.028072033898305086
sg6
I3123383
sg7
g8
sg9
I1000000
sg10
I23817930
sg11
I32047
sg12
I15364167
sg13
F41.0
sg14
I1829457
sg15
F6.0
sg16
F0.14634146341463414
sg17
I00
sg18
g8
sg19
F594.0
sg20
I8453763
sg21
F26.5
ssS'BAY FRANKLIN R'
p281
(dp282
g3
I239671
sg4
F944.0
sg5
F0.028072033898305086
sg6
I827696
sg7
g8
sg9
I400000
sg10
I63014
sg11
I129142
sg12
g8
sg13
F41.0
sg14
I69
sg15
F6.0
sg16
F0.14634146341463414
sg17
I00
sg18
I-201641
sg19
F594.0
sg20
I145796
sg21
F26.5
ssS'HAYSLETT RODERICK J'
p283
(dp284
g3
g8
sg4
F2649.0
sg5
F0.01321253303133258
sg6
g8
sg7
g8
sg9
g8
sg10
I346663
sg11
g8
sg12
g8
sg13
F1061.0
sg14
g8
sg15
F38.0
sg16
F0.03581526861451461
sg17
I00
sg18
g8
sg19
F571.0
sg20
I346663
sg21
F35.0
ssS'FUGH JOHN L'
p285
(dp286
g3
g8
sg4
F944.0
sg5
F0.028072033898305086
sg6
I50591
sg7
g8
sg9
g8
sg10
I176378
sg11
g8
sg12
I176378
sg13
F41.0
sg14
g8
sg15
F6.0
sg16
F0.14634146341463414
sg17
I00
sg18
g8
sg19
F594.0
sg20
g8
sg21
F26.5
ssS'FALLON JAMES B'
p287
(dp288
g3
I304588
sg4
F1755.0
sg5
F0.023931623931623933
sg6
I3676340
sg7
I374347
sg9
I2500000
sg10
I2332399
sg11
I95924
sg12
I940257
sg13
F75.0
sg14
I401481
sg15
F37.0
sg16
F0.49333333333333335
sg17
I00
sg18
g8
sg19
F1604.0
sg20
I1392142
sg21
F42.0
ssS'KOENIG MARK E'
p289
(dp290
g3
I309946
sg4
F2374.0
sg5
F0.02232518955349621
sg6
I1587421
sg7
I300000
sg9
I700000
sg10
I1920055
sg11
I127017
sg12
I671737
sg13
F61.0
sg14
I150458
sg15
F15.0
sg16
F0.2459016393442623
sg17
I01
sg18
g8
sg19
F2271.0
sg20
I1248318
sg21
F53.0
ssS'SAVAGE FRANK'
p291
(dp292
g3
g8
sg4
F944.0
sg5
F0.028072033898305086
sg6
I3750
sg7
g8
sg9
g8
sg10
g8
sg11
g8
sg12
g8
sg13
F41.0
sg14
g8
sg15
F6.0
sg16
F0.14634146341463414
sg17
I00
sg18
I-121284
sg19
F594.0
sg20
g8
sg21
F26.5
ssS'IZZO LAWRENCE L'
p293
(dp294
g3
I85274
sg4
F496.0
sg5
F0.056451612903225805
sg6
I1979596
sg7
I312500
sg9
g8
sg10
I5819980
sg11
I28093
sg12
I2165172
sg13
F19.0
sg14
I1553729
sg15
F5.0
sg16
F0.2631578947368421
sg17
I00
sg18
g8
sg19
F437.0
sg20
I3654808
sg21
F28.0
ssS'TILNEY ELIZABETH A'
p295
(dp296
g3
I247338
sg4
F460.0
sg5
F0.021739130434782608
sg6
I399393
sg7
I275000
sg9
I300000
sg10
I1168042
sg11
g8
sg12
I591250
sg13
F19.0
sg14
I152055
sg15
F11.0
sg16
F0.5789473684210527
sg17
I00
sg18
I-575000
sg19
F379.0
sg20
I576792
sg21
F10.0
ssS'MARTIN AMANDA K'
p297
(dp298
g3
I349487
sg4
F1522.0
sg5
F0.005256241787122208
sg6
I8407016
sg7
I5145434
sg9
g8
sg10
I2070306
sg11
I8211
sg12
I2070306
sg13
F230.0
sg14
I2818454
sg15
F0.0
sg16
F0.0
sg17
I00
sg18
g8
sg19
F477.0
sg20
g8
sg21
F8.0
ssS'BUY RICHARD B'
p299
(dp300
g3
I330546
sg4
F3523.0
sg5
F0.04428044280442804
sg6
I2355702
sg7
I769862
sg9
I900000
sg10
I3444470
sg11
g8
sg12
I2542813
sg13
F1053.0
sg14
I400572
sg15
F71.0
sg16
F0.06742640075973409
sg17
I00
sg18
I-694862
sg19
F2333.0
sg20
I901657
sg21
F156.0
ssS'GRAMM WENDY L'
p301
(dp302
g3
g8
sg4
F944.0
sg5
F0.028072033898305086
sg6
I119292
sg7
g8
sg9
g8
sg10
g8
sg11
g8
sg12
g8
sg13
F41.0
sg14
g8
sg15
F6.0
sg16
F0.14634146341463414
sg17
I00
sg18
g8
sg19
F594.0
sg20
g8
sg21
F26.5
ssS'CAUSEY RICHARD A'
p303
(dp304
g3
I415189
sg4
F1892.0
sg5
F0.0306553911205074
sg6
I1868758
sg7
I350000
sg9
I1000000
sg10
I2502063
sg11
I30674
sg12
g8
sg13
F49.0
sg14
I307895
sg15
F12.0
sg16
F0.24489795918367346
sg17
I01
sg18
I-235000
sg19
F1585.0
sg20
I2502063
sg21
F58.0
ssS'TAYLOR MITCHELL S'
p305
(dp306
g3
I265214
sg4
F533.0
sg5
F0.0
sg6
I1092663
sg7
g8
sg9
I600000
sg10
I3745048
sg11
g8
sg12
I3181250
sg13
F29.0
sg14
g8
sg15
F0.0
sg16
F0.0
sg17
I00
sg18
g8
sg19
F300.0
sg20
I563798
sg21
F0.0
ssS'DONAHUE JR JEFFREY M'
p307
(dp308
g3
I278601
sg4
F865.0
sg5
F0.21734104046242775
sg6
I875760
sg7
g8
sg9
I800000
sg10
I1080988
sg11
I96268
sg12
I765920
sg13
F22.0
sg14
I891
sg15
F11.0
sg16
F0.5
sg17
I00
sg18
I-300000
sg19
F772.0
sg20
I315068
sg21
F188.0
ssS'GLISAN JR BEN F'
p309
(dp310
g3
I274975
sg4
F873.0
sg5
F0.05956471935853379
sg6
I1272284
sg7
I71023
sg9
I600000
sg10
I778546
sg11
I125978
sg12
I384728
sg13
F16.0
sg14
I200308
sg15
F6.0
sg16
F0.375
sg17
I01
sg18
g8
sg19
F874.0
sg20
I393818
sg21
F52.0
ss.